; Function Attrs: mustprogress nounwind uwtable
define dso_local noundef ptr @_ZN5clang4ento21tagged_union_modeling32getConstructorDeclarationForCallERKNS0_9CallEventE(ptr noundef nonnull align 8 dereferenceable(72) %0) local_unnamed_addr #0 {
  %2 = load ptr, ptr %0, align 8
  %3 = getelementptr inbounds i8, ptr %2, i64 32
  %4 = load ptr, ptr %3, align 8
  %5 = tail call noundef i32 %4(ptr noundef nonnull align 8 dereferenceable(72) %0) #15
  %.not = icmp eq i32 %5, 5
  br i1 %.not, label %6, label %11

6:                                                ; preds = %1
  %7 = load ptr, ptr %0, align 8
  %8 = getelementptr inbounds i8, ptr %7, i64 48
  %9 = load ptr, ptr %8, align 8
  %10 = tail call noundef ptr %9(ptr noundef nonnull align 8 dereferenceable(72) %0) #15
  br label %11

11:                                               ; preds = %1, %6
  %.0 = phi ptr [ %10, %6 ], [ null, %1 ]
  ret ptr %.0
}